; Function Attrs: mustprogress uwtable
define internal void @_ZZN9grpc_core12_GLOBAL__N_119MakeConnectedFilterIXadL_ZNS0_21MakeClientCallPromiseEPNS_9TransportENS_8CallArgsESt8functionIFNS_12ArenaPromiseISt10unique_ptrI19grpc_metadata_batchNS_5Arena13PooledDeleterEEEES4_EEEEEE19grpc_channel_filtervENUlP18grpc_channel_stackP20grpc_channel_elementE_8__invokeESH_SJ_(ptr nocapture noundef %channel_stack, ptr nocapture noundef readonly %elem) #3 align 2 {
entry:
  %0 = getelementptr i8, ptr %elem, i64 8
  %elem.val = load ptr, ptr %0, align 8
  %elem.val.val = load ptr, ptr %elem.val, align 8
  %vtable.i = load ptr, ptr %elem.val.val, align 8
  %vfn.i = getelementptr inbounds i8, ptr %vtable.i, i64 24
  %1 = load ptr, ptr %vfn.i, align 8
  %call.i = tail call noundef ptr %1(ptr noundef nonnull align 8 dereferenceable(8) %elem.val.val)
  %vtable2.i = load ptr, ptr %call.i, align 8
  %2 = load ptr, ptr %vtable2.i, align 8
  %call4.i = tail call noundef i64 %2(ptr noundef nonnull align 8 dereferenceable(8) %call.i)
  %call_stack_size.i = getelementptr inbounds i8, ptr %channel_stack, i64 48
  %3 = load i64, ptr %call_stack_size.i, align 8
  %add.i = add i64 %3, %call4.i
  store i64 %add.i, ptr %call_stack_size.i, align 8
  ret void
}